target datalayout = "e-m:e-p270:32:32-p271:32:32-p272:64:64-i64:64-i128:128-f80:128-n8:16:32:64-S128"
target triple = "x86_64-unknown-linux-gnu"

%"struct.node::AssertionInfo" = type { ptr, ptr, ptr }
%"class.v8::IndirectHandleBase" = type { ptr }
%"class.v8::Local" = type { %"class.v8::LocalBase" }
%"class.v8::LocalBase" = type { %"class.v8::IndirectHandleBase" }
%"class.v8::Local.256" = type { %"class.v8::LocalBase.257" }
%"class.v8::LocalBase.257" = type { %"class.v8::IndirectHandleBase" }
%"class.v8::LocalBase.278" = type { %"class.v8::IndirectHandleBase" }
%"class.v8::Local.277" = type { %"class.v8::LocalBase.278" }
%"class.v8::FunctionCallbackInfo" = type <{ ptr, ptr, i32, [4 x i8] }>

@_ZZN4node10StreamBase8ShutdownERKN2v820FunctionCallbackInfoINS1_5ValueEEEE4args = internal constant %"struct.node::AssertionInfo" { ptr @.str.3, ptr @.str.4, ptr @.str.5 }, align 8

; Function Attrs: mustprogress nounwind uwtable
define dso_local noundef i32 @_ZN4node10StreamBase8ShutdownERKN2v820FunctionCallbackInfoINS1_5ValueEEE(ptr noundef nonnull align 8 dereferenceable(64) %this, ptr noundef nonnull align 8 dereferenceable(20) %args) #4 align 2 {
entry:
  %this.addr.i142 = alloca ptr, align 8
  %other.addr.i143 = alloca ptr, align 8
  %this.addr.i139 = alloca ptr, align 8
  %other.addr.i140 = alloca ptr, align 8
  %this.addr.i136 = alloca ptr, align 8
  %other.addr.i137 = alloca ptr, align 8
  %this.addr.i.i131 = alloca ptr, align 8
  %other.addr.i.i = alloca ptr, align 8
  %retval.i132 = alloca %"class.v8::Local", align 8
  %that.i133 = alloca %"class.v8::Local.256", align 8
  %ref.tmp.i134 = alloca %"class.v8::LocalBase", align 8
  %slot.addr.i130 = alloca ptr, align 8
  %this.addr.i.i126 = alloca ptr, align 8
  %this.addr.i127 = alloca ptr, align 8
  %this.addr.i.i120 = alloca ptr, align 8
  %location.addr.i.i121 = alloca ptr, align 8
  %this.addr.i122 = alloca ptr, align 8
  %location.addr.i123 = alloca ptr, align 8
  %this.addr.i.i114 = alloca ptr, align 8
  %location.addr.i.i115 = alloca ptr, align 8
  %this.addr.i116 = alloca ptr, align 8
  %location.addr.i117 = alloca ptr, align 8
  %this.addr.i111 = alloca ptr, align 8
  %other.addr.i112 = alloca ptr, align 8
  %this.addr.i108 = alloca ptr, align 8
  %other.addr.i109 = alloca ptr, align 8
  %retval.i106 = alloca %"class.v8::LocalBase.257", align 8
  %slot.addr.i107 = alloca ptr, align 8
  %retval.i104 = alloca %"class.v8::LocalBase.257", align 8
  %slot.addr.i105 = alloca ptr, align 8
  %retval.i100 = alloca %"class.v8::Local.256", align 8
  %slot.addr.i101 = alloca ptr, align 8
  %ref.tmp.i102 = alloca %"class.v8::LocalBase.257", align 8
  %retval.i97 = alloca %"class.v8::Local.256", align 8
  %slot.addr.i98 = alloca ptr, align 8
  %ref.tmp.i99 = alloca %"class.v8::LocalBase.257", align 8
  %this.addr.i.i91 = alloca ptr, align 8
  %location.addr.i.i92 = alloca ptr, align 8
  %this.addr.i93 = alloca ptr, align 8
  %location.addr.i94 = alloca ptr, align 8
  %this.addr.i.i = alloca ptr, align 8
  %location.addr.i.i = alloca ptr, align 8
  %this.addr.i89 = alloca ptr, align 8
  %location.addr.i = alloca ptr, align 8
  %this.addr.i86 = alloca ptr, align 8
  %other.addr.i87 = alloca ptr, align 8
  %this.addr.i84 = alloca ptr, align 8
  %other.addr.i = alloca ptr, align 8
  %retval.i82 = alloca %"class.v8::LocalBase.278", align 8
  %slot.addr.i83 = alloca ptr, align 8
  %retval.i80 = alloca %"class.v8::LocalBase.278", align 8
  %slot.addr.i81 = alloca ptr, align 8
  %retval.i76 = alloca %"class.v8::Local.277", align 8
  %slot.addr.i77 = alloca ptr, align 8
  %ref.tmp.i78 = alloca %"class.v8::LocalBase.278", align 8
  %retval.i75 = alloca %"class.v8::Local.277", align 8
  %slot.addr.i = alloca ptr, align 8
  %ref.tmp.i = alloca %"class.v8::LocalBase.278", align 8
  %isolate.addr.i68 = alloca ptr, align 8
  %index.addr.i69 = alloca i32, align 4
  %addr.i70 = alloca i64, align 8
  %isolate.addr.i67 = alloca ptr, align 8
  %index.addr.i = alloca i32, align 4
  %addr.i = alloca i64, align 8
  %isolate.addr.i66 = alloca ptr, align 8
  %isolate.addr.i65 = alloca ptr, align 8
  %that.i62 = alloca %"class.v8::Local.277", align 8
  %this.addr.i63 = alloca ptr, align 8
  %that.i = alloca %"class.v8::Local.277", align 8
  %this.addr.i61 = alloca ptr, align 8
  %this.addr.i58 = alloca ptr, align 8
  %this.addr.i56 = alloca ptr, align 8
  %retval.i51 = alloca %"class.v8::Local.277", align 8
  %isolate.addr.i52 = alloca ptr, align 8
  %slot.i53 = alloca ptr, align 8
  %retval.i49 = alloca %"class.v8::Local.277", align 8
  %isolate.addr.i = alloca ptr, align 8
  %slot.i = alloca ptr, align 8
  %retval.i44 = alloca %"class.v8::Local", align 8
  %this.addr.i45 = alloca ptr, align 8
  %agg.tmp.i46 = alloca %"class.v8::Local.256", align 8
  %this.addr.i41 = alloca ptr, align 8
  %retval.i23 = alloca %"class.v8::Local.256", align 8
  %this.addr.i24 = alloca ptr, align 8
  %i.addr.i25 = alloca i32, align 4
  %agg.tmp.i26 = alloca %"class.v8::Local.277", align 8
  %retval.i = alloca %"class.v8::Local.256", align 8
  %this.addr.i = alloca ptr, align 8
  %i.addr.i = alloca i32, align 4
  %agg.tmp.i = alloca %"class.v8::Local.277", align 8
  %this.addr = alloca ptr, align 8
  %args.addr = alloca ptr, align 8
  %ref.tmp = alloca %"class.v8::Local.256", align 8
  %req_wrap_obj = alloca %"class.v8::Local", align 8
  %ref.tmp10 = alloca %"class.v8::Local.256", align 8
  %agg.tmp = alloca %"class.v8::Local", align 8
  store ptr %this, ptr %this.addr, align 8
  store ptr %args, ptr %args.addr, align 8
  %this1 = load ptr, ptr %this.addr, align 8
  br label %do.body

do.body:                                          ; preds = %entry
  %0 = load ptr, ptr %args.addr, align 8
  store ptr %0, ptr %this.addr.i24, align 8
  store i32 0, ptr %i.addr.i25, align 4
  %this1.i27 = load ptr, ptr %this.addr.i24, align 8
  %1 = load i32, ptr %i.addr.i25, align 4
  %cmp.i28 = icmp slt i32 %1, 0
  br i1 %cmp.i28, label %if.then.i37, label %lor.lhs.false.i29

lor.lhs.false.i29:                                ; preds = %do.body
  %length_.i30 = getelementptr inbounds %"class.v8::FunctionCallbackInfo", ptr %this1.i27, i32 0, i32 2
  %2 = load i32, ptr %length_.i30, align 8
  %3 = load i32, ptr %i.addr.i25, align 4
  %cmp2.i31 = icmp sle i32 %2, %3
  br i1 %cmp2.i31, label %if.then.i37, label %if.end.i32

if.then.i37:                                      ; preds = %lor.lhs.false.i29, %do.body
  store ptr %this1.i27, ptr %this.addr.i56, align 8
  %this1.i57 = load ptr, ptr %this.addr.i56, align 8
  %4 = load ptr, ptr %this1.i57, align 8
  %arrayidx.i = getelementptr inbounds i64, ptr %4, i64 1
  %5 = load ptr, ptr %arrayidx.i, align 8
  store ptr %5, ptr %isolate.addr.i, align 8
  %6 = load ptr, ptr %isolate.addr.i, align 8
  store ptr %6, ptr %isolate.addr.i66, align 8
  %7 = load ptr, ptr %isolate.addr.i, align 8
  store ptr %7, ptr %isolate.addr.i68, align 8
  store i32 4, ptr %index.addr.i69, align 4
  %8 = load ptr, ptr %isolate.addr.i68, align 8
  %9 = ptrtoint ptr %8 to i64
  %add.i71 = add i64 %9, 576
  %10 = load i32, ptr %index.addr.i69, align 4
  %mul.i72 = mul nsw i32 %10, 8
  %conv.i73 = sext i32 %mul.i72 to i64
  %add1.i74 = add i64 %add.i71, %conv.i73
  store i64 %add1.i74, ptr %addr.i70, align 8
  %11 = load i64, ptr %addr.i70, align 8
  %12 = inttoptr i64 %11 to ptr
  store ptr %12, ptr %slot.i, align 8
  %13 = load ptr, ptr %slot.i, align 8
  store ptr %13, ptr %slot.addr.i77, align 8
  %14 = load ptr, ptr %slot.addr.i77, align 8
  store ptr %14, ptr %slot.addr.i81, align 8
  %15 = load ptr, ptr %slot.addr.i81, align 8
  store ptr %retval.i80, ptr %this.addr.i93, align 8
  store ptr %15, ptr %location.addr.i94, align 8
  %this1.i95 = load ptr, ptr %this.addr.i93, align 8
  %16 = load ptr, ptr %location.addr.i94, align 8
  store ptr %this1.i95, ptr %this.addr.i.i91, align 8
  store ptr %16, ptr %location.addr.i.i92, align 8
  %this1.i.i96 = load ptr, ptr %this.addr.i.i91, align 8
  %17 = load ptr, ptr %location.addr.i.i92, align 8
  store ptr %17, ptr %this1.i.i96, align 8
  %18 = load ptr, ptr %retval.i80, align 8
  store ptr %18, ptr %ref.tmp.i78, align 8
  store ptr %retval.i76, ptr %this.addr.i84, align 8
  store ptr %ref.tmp.i78, ptr %other.addr.i, align 8
  %this1.i85 = load ptr, ptr %this.addr.i84, align 8
  %19 = load ptr, ptr %other.addr.i, align 8
  call void @llvm.memcpy.p0.p0.i64(ptr align 8 %this1.i85, ptr align 8 %19, i64 8, i1 false)
  %20 = load ptr, ptr %retval.i76, align 8
  store ptr %20, ptr %retval.i49, align 8
  %21 = load ptr, ptr %retval.i49, align 8
  store ptr %21, ptr %agg.tmp.i26, align 8
  %22 = load ptr, ptr %agg.tmp.i26, align 8
  store ptr %22, ptr %that.i, align 8
  store ptr %retval.i23, ptr %this.addr.i61, align 8
  %this3.i = load ptr, ptr %this.addr.i61, align 8
  store ptr %this3.i, ptr %this.addr.i142, align 8
  store ptr %that.i, ptr %other.addr.i143, align 8
  %this1.i144 = load ptr, ptr %this.addr.i142, align 8
  %23 = load ptr, ptr %other.addr.i143, align 8
  call void @llvm.memcpy.p0.p0.i64(ptr align 8 %this1.i144, ptr align 8 %23, i64 8, i1 false)
  br label %_ZNK2v820FunctionCallbackInfoINS_5ValueEEixEi.exit40

if.end.i32:                                       ; preds = %lor.lhs.false.i29
  %values_.i33 = getelementptr inbounds %"class.v8::FunctionCallbackInfo", ptr %this1.i27, i32 0, i32 1
  %24 = load ptr, ptr %values_.i33, align 8
  %25 = load i32, ptr %i.addr.i25, align 4
  %idx.ext.i34 = sext i32 %25 to i64
  %add.ptr.i35 = getelementptr inbounds i64, ptr %24, i64 %idx.ext.i34
  store ptr %add.ptr.i35, ptr %slot.addr.i98, align 8
  %26 = load ptr, ptr %slot.addr.i98, align 8
  store ptr %26, ptr %slot.addr.i107, align 8
  %27 = load ptr, ptr %slot.addr.i107, align 8
  store ptr %retval.i106, ptr %this.addr.i116, align 8
  store ptr %27, ptr %location.addr.i117, align 8
  %this1.i118 = load ptr, ptr %this.addr.i116, align 8
  %28 = load ptr, ptr %location.addr.i117, align 8
  store ptr %this1.i118, ptr %this.addr.i.i114, align 8
  store ptr %28, ptr %location.addr.i.i115, align 8
  %this1.i.i119 = load ptr, ptr %this.addr.i.i114, align 8
  %29 = load ptr, ptr %location.addr.i.i115, align 8
  store ptr %29, ptr %this1.i.i119, align 8
  %30 = load ptr, ptr %retval.i106, align 8
  store ptr %30, ptr %ref.tmp.i99, align 8
  store ptr %retval.i97, ptr %this.addr.i111, align 8
  store ptr %ref.tmp.i99, ptr %other.addr.i112, align 8
  %this1.i113 = load ptr, ptr %this.addr.i111, align 8
  %31 = load ptr, ptr %other.addr.i112, align 8
  call void @llvm.memcpy.p0.p0.i64(ptr align 8 %this1.i113, ptr align 8 %31, i64 8, i1 false)
  %32 = load ptr, ptr %retval.i97, align 8
  store ptr %32, ptr %retval.i23, align 8
  br label %_ZNK2v820FunctionCallbackInfoINS_5ValueEEixEi.exit40

_ZNK2v820FunctionCallbackInfoINS_5ValueEEixEi.exit40: ; preds = %if.end.i32, %if.then.i37
  %33 = load ptr, ptr %retval.i23, align 8
  %coerce.dive = getelementptr inbounds %"class.v8::Local.256", ptr %ref.tmp, i32 0, i32 0
  %coerce.dive2 = getelementptr inbounds %"class.v8::LocalBase.257", ptr %coerce.dive, i32 0, i32 0
  %coerce.dive3 = getelementptr inbounds %"class.v8::IndirectHandleBase", ptr %coerce.dive2, i32 0, i32 0
  store ptr %33, ptr %coerce.dive3, align 8
  store ptr %ref.tmp, ptr %this.addr.i41, align 8
  %this1.i42 = load ptr, ptr %this.addr.i41, align 8
  store ptr %this1.i42, ptr %this.addr.i127, align 8
  %this1.i128 = load ptr, ptr %this.addr.i127, align 8
  store ptr %this1.i128, ptr %this.addr.i.i126, align 8
  %this1.i.i129 = load ptr, ptr %this.addr.i.i126, align 8
  %34 = load ptr, ptr %this1.i.i129, align 8
  store ptr %34, ptr %slot.addr.i130, align 8
  %35 = load ptr, ptr %slot.addr.i130, align 8
  %call5 = call noundef zeroext i1 @_ZNK2v85Value8IsObjectEv(ptr noundef nonnull align 1 dereferenceable(1) %35)
  %lnot = xor i1 %call5, true
  %lnot6 = xor i1 %lnot, true
  %lnot7 = xor i1 %lnot6, true
  br i1 %lnot7, label %if.then, label %if.end

if.then:                                          ; preds = %_ZNK2v820FunctionCallbackInfoINS_5ValueEEixEi.exit40
  br label %do.body8

do.body8:                                         ; preds = %if.then
  call void @_ZN4node6AssertERKNS_13AssertionInfoE(ptr noundef nonnull align 8 dereferenceable(24) @_ZZN4node10StreamBase8ShutdownERKN2v820FunctionCallbackInfoINS1_5ValueEEEE4args)
  call void @abort() #15
  unreachable

do.end:                                           ; No predecessors!
  br label %if.end

if.end:                                           ; preds = %do.end, %_ZNK2v820FunctionCallbackInfoINS_5ValueEEixEi.exit40
  br label %do.end9

do.end9:                                          ; preds = %if.end
  %36 = load ptr, ptr %args.addr, align 8
  store ptr %36, ptr %this.addr.i, align 8
  store i32 0, ptr %i.addr.i, align 4
  %this1.i = load ptr, ptr %this.addr.i, align 8
  %37 = load i32, ptr %i.addr.i, align 4
  %cmp.i = icmp slt i32 %37, 0
  br i1 %cmp.i, label %if.then.i, label %lor.lhs.false.i

lor.lhs.false.i:                                  ; preds = %do.end9
  %length_.i = getelementptr inbounds %"class.v8::FunctionCallbackInfo", ptr %this1.i, i32 0, i32 2
  %38 = load i32, ptr %length_.i, align 8
  %39 = load i32, ptr %i.addr.i, align 4
  %cmp2.i = icmp sle i32 %38, %39
  br i1 %cmp2.i, label %if.then.i, label %if.end.i

if.then.i:                                        ; preds = %lor.lhs.false.i, %do.end9
  store ptr %this1.i, ptr %this.addr.i58, align 8
  %this1.i59 = load ptr, ptr %this.addr.i58, align 8
  %40 = load ptr, ptr %this1.i59, align 8
  %arrayidx.i60 = getelementptr inbounds i64, ptr %40, i64 1
  %41 = load ptr, ptr %arrayidx.i60, align 8
  store ptr %41, ptr %isolate.addr.i52, align 8
  %42 = load ptr, ptr %isolate.addr.i52, align 8
  store ptr %42, ptr %isolate.addr.i65, align 8
  %43 = load ptr, ptr %isolate.addr.i52, align 8
  store ptr %43, ptr %isolate.addr.i67, align 8
  store i32 4, ptr %index.addr.i, align 4
  %44 = load ptr, ptr %isolate.addr.i67, align 8
  %45 = ptrtoint ptr %44 to i64
  %add.i = add i64 %45, 576
  %46 = load i32, ptr %index.addr.i, align 4
  %mul.i = mul nsw i32 %46, 8
  %conv.i = sext i32 %mul.i to i64
  %add1.i = add i64 %add.i, %conv.i
  store i64 %add1.i, ptr %addr.i, align 8
  %47 = load i64, ptr %addr.i, align 8
  %48 = inttoptr i64 %47 to ptr
  store ptr %48, ptr %slot.i53, align 8
  %49 = load ptr, ptr %slot.i53, align 8
  store ptr %49, ptr %slot.addr.i, align 8
  %50 = load ptr, ptr %slot.addr.i, align 8
  store ptr %50, ptr %slot.addr.i83, align 8
  %51 = load ptr, ptr %slot.addr.i83, align 8
  store ptr %retval.i82, ptr %this.addr.i89, align 8
  store ptr %51, ptr %location.addr.i, align 8
  %this1.i90 = load ptr, ptr %this.addr.i89, align 8
  %52 = load ptr, ptr %location.addr.i, align 8
  store ptr %this1.i90, ptr %this.addr.i.i, align 8
  store ptr %52, ptr %location.addr.i.i, align 8
  %this1.i.i = load ptr, ptr %this.addr.i.i, align 8
  %53 = load ptr, ptr %location.addr.i.i, align 8
  store ptr %53, ptr %this1.i.i, align 8
  %54 = load ptr, ptr %retval.i82, align 8
  store ptr %54, ptr %ref.tmp.i, align 8
  store ptr %retval.i75, ptr %this.addr.i86, align 8
  store ptr %ref.tmp.i, ptr %other.addr.i87, align 8
  %this1.i88 = load ptr, ptr %this.addr.i86, align 8
  %55 = load ptr, ptr %other.addr.i87, align 8
  call void @llvm.memcpy.p0.p0.i64(ptr align 8 %this1.i88, ptr align 8 %55, i64 8, i1 false)
  %56 = load ptr, ptr %retval.i75, align 8
  store ptr %56, ptr %retval.i51, align 8
  %57 = load ptr, ptr %retval.i51, align 8
  store ptr %57, ptr %agg.tmp.i, align 8
  %58 = load ptr, ptr %agg.tmp.i, align 8
  store ptr %58, ptr %that.i62, align 8
  store ptr %retval.i, ptr %this.addr.i63, align 8
  %this3.i64 = load ptr, ptr %this.addr.i63, align 8
  store ptr %this3.i64, ptr %this.addr.i139, align 8
  store ptr %that.i62, ptr %other.addr.i140, align 8
  %this1.i141 = load ptr, ptr %this.addr.i139, align 8
  %59 = load ptr, ptr %other.addr.i140, align 8
  call void @llvm.memcpy.p0.p0.i64(ptr align 8 %this1.i141, ptr align 8 %59, i64 8, i1 false)
  br label %_ZNK2v820FunctionCallbackInfoINS_5ValueEEixEi.exit

if.end.i:                                         ; preds = %lor.lhs.false.i
  %values_.i = getelementptr inbounds %"class.v8::FunctionCallbackInfo", ptr %this1.i, i32 0, i32 1
  %60 = load ptr, ptr %values_.i, align 8
  %61 = load i32, ptr %i.addr.i, align 4
  %idx.ext.i = sext i32 %61 to i64
  %add.ptr.i = getelementptr inbounds i64, ptr %60, i64 %idx.ext.i
  store ptr %add.ptr.i, ptr %slot.addr.i101, align 8
  %62 = load ptr, ptr %slot.addr.i101, align 8
  store ptr %62, ptr %slot.addr.i105, align 8
  %63 = load ptr, ptr %slot.addr.i105, align 8
  store ptr %retval.i104, ptr %this.addr.i122, align 8
  store ptr %63, ptr %location.addr.i123, align 8
  %this1.i124 = load ptr, ptr %this.addr.i122, align 8
  %64 = load ptr, ptr %location.addr.i123, align 8
  store ptr %this1.i124, ptr %this.addr.i.i120, align 8
  store ptr %64, ptr %location.addr.i.i121, align 8
  %this1.i.i125 = load ptr, ptr %this.addr.i.i120, align 8
  %65 = load ptr, ptr %location.addr.i.i121, align 8
  store ptr %65, ptr %this1.i.i125, align 8
  %66 = load ptr, ptr %retval.i104, align 8
  store ptr %66, ptr %ref.tmp.i102, align 8
  store ptr %retval.i100, ptr %this.addr.i108, align 8
  store ptr %ref.tmp.i102, ptr %other.addr.i109, align 8
  %this1.i110 = load ptr, ptr %this.addr.i108, align 8
  %67 = load ptr, ptr %other.addr.i109, align 8
  call void @llvm.memcpy.p0.p0.i64(ptr align 8 %this1.i110, ptr align 8 %67, i64 8, i1 false)
  %68 = load ptr, ptr %retval.i100, align 8
  store ptr %68, ptr %retval.i, align 8
  br label %_ZNK2v820FunctionCallbackInfoINS_5ValueEEixEi.exit

_ZNK2v820FunctionCallbackInfoINS_5ValueEEixEi.exit: ; preds = %if.end.i, %if.then.i
  %69 = load ptr, ptr %retval.i, align 8
  %coerce.dive12 = getelementptr inbounds %"class.v8::Local.256", ptr %ref.tmp10, i32 0, i32 0
  %coerce.dive13 = getelementptr inbounds %"class.v8::LocalBase.257", ptr %coerce.dive12, i32 0, i32 0
  %coerce.dive14 = getelementptr inbounds %"class.v8::IndirectHandleBase", ptr %coerce.dive13, i32 0, i32 0
  store ptr %69, ptr %coerce.dive14, align 8
  store ptr %ref.tmp10, ptr %this.addr.i45, align 8
  %this1.i47 = load ptr, ptr %this.addr.i45, align 8
  call void @llvm.memcpy.p0.p0.i64(ptr align 8 %agg.tmp.i46, ptr align 8 %this1.i47, i64 8, i1 false)
  %70 = load ptr, ptr %agg.tmp.i46, align 8
  store ptr %70, ptr %that.i133, align 8
  store ptr %ref.tmp.i134, ptr %this.addr.i136, align 8
  store ptr %that.i133, ptr %other.addr.i137, align 8
  %this1.i138 = load ptr, ptr %this.addr.i136, align 8
  %71 = load ptr, ptr %other.addr.i137, align 8
  call void @llvm.memcpy.p0.p0.i64(ptr align 8 %this1.i138, ptr align 8 %71, i64 8, i1 false)
  store ptr %retval.i132, ptr %this.addr.i.i131, align 8
  store ptr %ref.tmp.i134, ptr %other.addr.i.i, align 8
  %this1.i.i135 = load ptr, ptr %this.addr.i.i131, align 8
  %72 = load ptr, ptr %other.addr.i.i, align 8
  call void @llvm.memcpy.p0.p0.i64(ptr align 8 %this1.i.i135, ptr align 8 %72, i64 8, i1 false)
  %73 = load ptr, ptr %retval.i132, align 8
  store ptr %73, ptr %retval.i44, align 8
  %74 = load ptr, ptr %retval.i44, align 8
  %coerce.dive16 = getelementptr inbounds %"class.v8::Local", ptr %req_wrap_obj, i32 0, i32 0
  %coerce.dive17 = getelementptr inbounds %"class.v8::LocalBase", ptr %coerce.dive16, i32 0, i32 0
  %coerce.dive18 = getelementptr inbounds %"class.v8::IndirectHandleBase", ptr %coerce.dive17, i32 0, i32 0
  store ptr %74, ptr %coerce.dive18, align 8
  call void @llvm.memcpy.p0.p0.i64(ptr align 8 %agg.tmp, ptr align 8 %req_wrap_obj, i64 8, i1 false)
  %coerce.dive19 = getelementptr inbounds %"class.v8::Local", ptr %agg.tmp, i32 0, i32 0
  %coerce.dive20 = getelementptr inbounds %"class.v8::LocalBase", ptr %coerce.dive19, i32 0, i32 0
  %coerce.dive21 = getelementptr inbounds %"class.v8::IndirectHandleBase", ptr %coerce.dive20, i32 0, i32 0
  %75 = load ptr, ptr %coerce.dive21, align 8
  %call22 = call noundef i32 @_ZN4node10StreamBase8ShutdownEN2v85LocalINS1_6ObjectEEE(ptr noundef nonnull align 8 dereferenceable(64) %this1, ptr %75)
  ret i32 %call22
}