; Function Attrs: mustprogress nounwind uwtable
define dso_local noundef i32 @_ZN4node10StreamBase8ShutdownERKN2v820FunctionCallbackInfoINS1_5ValueEEE(ptr noundef nonnull align 8 dereferenceable(64) %this, ptr nocapture noundef nonnull readonly align 8 dereferenceable(20) %args) local_unnamed_addr #3 align 2 {
entry:
  %length_.i30 = getelementptr inbounds i8, ptr %args, i64 16
  %0 = load i32, ptr %length_.i30, align 8
  %cmp2.i31 = icmp slt i32 %0, 1
  br i1 %cmp2.i31, label %if.then.i37, label %if.end.i32

if.then.i37:                                      ; preds = %entry
  %1 = load ptr, ptr %args, align 8
  %arrayidx.i = getelementptr inbounds i8, ptr %1, i64 8
  %2 = load ptr, ptr %arrayidx.i, align 8
  %3 = ptrtoint ptr %2 to i64
  %add1.i74 = add i64 %3, 608
  %4 = inttoptr i64 %add1.i74 to ptr
  br label %_ZNK2v820FunctionCallbackInfoINS_5ValueEEixEi.exit40

if.end.i32:                                       ; preds = %entry
  %values_.i33 = getelementptr inbounds i8, ptr %args, i64 8
  %5 = load ptr, ptr %values_.i33, align 8
  br label %_ZNK2v820FunctionCallbackInfoINS_5ValueEEixEi.exit40

_ZNK2v820FunctionCallbackInfoINS_5ValueEEixEi.exit40: ; preds = %if.end.i32, %if.then.i37
  %retval.i23.sroa.0.0 = phi ptr [ %4, %if.then.i37 ], [ %5, %if.end.i32 ]
  %call5 = tail call noundef zeroext i1 @_ZNK2v85Value8IsObjectEv(ptr noundef nonnull align 1 dereferenceable(1) %retval.i23.sroa.0.0) #20
  br i1 %call5, label %lor.lhs.false.i, label %do.body8

do.body8:                                         ; preds = %_ZNK2v820FunctionCallbackInfoINS_5ValueEEixEi.exit40
  tail call void @_ZN4node6AssertERKNS_13AssertionInfoE(ptr noundef nonnull align 8 dereferenceable(24) @_ZZN4node10StreamBase8ShutdownERKN2v820FunctionCallbackInfoINS1_5ValueEEEE4args) #20
  tail call void @abort() #21
  unreachable

lor.lhs.false.i:                                  ; preds = %_ZNK2v820FunctionCallbackInfoINS_5ValueEEixEi.exit40
  %6 = load i32, ptr %length_.i30, align 8
  %cmp2.i = icmp slt i32 %6, 1
  br i1 %cmp2.i, label %if.then.i, label %if.end.i

if.then.i:                                        ; preds = %lor.lhs.false.i
  %7 = load ptr, ptr %args, align 8
  %arrayidx.i60 = getelementptr inbounds i8, ptr %7, i64 8
  %8 = load ptr, ptr %arrayidx.i60, align 8
  %9 = ptrtoint ptr %8 to i64
  %add1.i = add i64 %9, 608
  %10 = inttoptr i64 %add1.i to ptr
  br label %_ZNK2v820FunctionCallbackInfoINS_5ValueEEixEi.exit

if.end.i:                                         ; preds = %lor.lhs.false.i
  %values_.i = getelementptr inbounds i8, ptr %args, i64 8
  %11 = load ptr, ptr %values_.i, align 8
  br label %_ZNK2v820FunctionCallbackInfoINS_5ValueEEixEi.exit

_ZNK2v820FunctionCallbackInfoINS_5ValueEEixEi.exit: ; preds = %if.end.i, %if.then.i
  %retval.i.sroa.0.0 = phi ptr [ %10, %if.then.i ], [ %11, %if.end.i ]
  %call22 = tail call noundef i32 @_ZN4node10StreamBase8ShutdownEN2v85LocalINS1_6ObjectEEE(ptr noundef nonnull align 8 dereferenceable(64) %this, ptr %retval.i.sroa.0.0)
  ret i32 %call22
}